target datalayout = "e-m:e-p270:32:32-p271:32:32-p272:64:64-i64:64-i128:128-f80:128-n8:16:32:64-S128"
target triple = "x86_64-pc-linux-gnu"

%struct.NALU = type { i32, i32 }
%struct.NALUList = type { ptr, i32, i32 }

; Function Attrs: nounwind uwtable
define void @ff_nal_units_write_list(ptr noundef %0, ptr noundef %1, ptr noundef %2) #0 {
  %4 = alloca ptr, align 8
  %5 = alloca ptr, align 8
  %6 = alloca ptr, align 8
  %7 = alloca i32, align 4
  store ptr %0, ptr %4, align 8, !tbaa !18
  store ptr %1, ptr %5, align 8, !tbaa !16
  store ptr %2, ptr %6, align 8, !tbaa !4
  call void @llvm.lifetime.start.p0(i64 4, ptr %7) #5
  store i32 0, ptr %7, align 4, !tbaa !12
  br label %8

8:                                                ; preds = %45, %3
  %9 = load i32, ptr %7, align 4, !tbaa !12
  %10 = load ptr, ptr %4, align 8, !tbaa !18
  %11 = getelementptr inbounds nuw %struct.NALUList, ptr %10, i32 0, i32 2
  %12 = load i32, ptr %11, align 4, !tbaa !23
  %13 = icmp ult i32 %9, %12
  br i1 %13, label %15, label %14

14:                                               ; preds = %8
  call void @llvm.lifetime.end.p0(i64 4, ptr %7) #5
  br label %48

15:                                               ; preds = %8
  %16 = load ptr, ptr %5, align 8, !tbaa !16
  %17 = load ptr, ptr %4, align 8, !tbaa !18
  %18 = getelementptr inbounds nuw %struct.NALUList, ptr %17, i32 0, i32 0
  %19 = load ptr, ptr %18, align 8, !tbaa !26
  %20 = load i32, ptr %7, align 4, !tbaa !12
  %21 = zext i32 %20 to i64
  %22 = getelementptr inbounds nuw %struct.NALU, ptr %19, i64 %21
  %23 = getelementptr inbounds nuw %struct.NALU, ptr %22, i32 0, i32 1
  %24 = load i32, ptr %23, align 4, !tbaa !30
  call void @avio_wb32(ptr noundef %16, i32 noundef %24)
  %25 = load ptr, ptr %5, align 8, !tbaa !16
  %26 = load ptr, ptr %6, align 8, !tbaa !4
  %27 = load ptr, ptr %4, align 8, !tbaa !18
  %28 = getelementptr inbounds nuw %struct.NALUList, ptr %27, i32 0, i32 0
  %29 = load ptr, ptr %28, align 8, !tbaa !26
  %30 = load i32, ptr %7, align 4, !tbaa !12
  %31 = zext i32 %30 to i64
  %32 = getelementptr inbounds nuw %struct.NALU, ptr %29, i64 %31
  %33 = getelementptr inbounds nuw %struct.NALU, ptr %32, i32 0, i32 0
  %34 = load i32, ptr %33, align 4, !tbaa !28
  %35 = sext i32 %34 to i64
  %36 = getelementptr inbounds i8, ptr %26, i64 %35
  %37 = load ptr, ptr %4, align 8, !tbaa !18
  %38 = getelementptr inbounds nuw %struct.NALUList, ptr %37, i32 0, i32 0
  %39 = load ptr, ptr %38, align 8, !tbaa !26
  %40 = load i32, ptr %7, align 4, !tbaa !12
  %41 = zext i32 %40 to i64
  %42 = getelementptr inbounds nuw %struct.NALU, ptr %39, i64 %41
  %43 = getelementptr inbounds nuw %struct.NALU, ptr %42, i32 0, i32 1
  %44 = load i32, ptr %43, align 4, !tbaa !30
  call void @avio_write(ptr noundef %25, ptr noundef %36, i32 noundef %44)
  br label %45

45:                                               ; preds = %15
  %46 = load i32, ptr %7, align 4, !tbaa !12
  %47 = add i32 %46, 1
  store i32 %47, ptr %7, align 4, !tbaa !12
  br label %8, !llvm.loop !32

48:                                               ; preds = %14
  ret void
}