; Function Attrs: nounwind uwtable
define void @ff_nal_units_write_list(ptr noundef readonly captures(none) %0, ptr noundef %1, ptr noundef %2) local_unnamed_addr #2 {
  %4 = getelementptr inbounds nuw i8, ptr %0, i64 12
  %5 = load i32, ptr %4, align 4, !tbaa !12
  %.not = icmp eq i32 %5, 0
  br i1 %.not, label %._crit_edge, label %.lr.ph

._crit_edge:                                      ; preds = %.lr.ph, %3
  ret void

.lr.ph:                                           ; preds = %3, %.lr.ph
  %indvars.iv = phi i64 [ %indvars.iv.next, %.lr.ph ], [ 0, %3 ]
  %6 = load ptr, ptr %0, align 8, !tbaa !17
  %7 = getelementptr inbounds nuw %struct.NALU, ptr %6, i64 %indvars.iv, i32 1
  %8 = load i32, ptr %7, align 4, !tbaa !19
  tail call void @avio_wb32(ptr noundef %1, i32 noundef %8) #8
  %9 = load ptr, ptr %0, align 8, !tbaa !17
  %10 = getelementptr inbounds nuw %struct.NALU, ptr %9, i64 %indvars.iv
  %11 = load i32, ptr %10, align 4, !tbaa !21
  %12 = sext i32 %11 to i64
  %13 = getelementptr inbounds i8, ptr %2, i64 %12
  %14 = getelementptr inbounds nuw i8, ptr %10, i64 4
  %15 = load i32, ptr %14, align 4, !tbaa !19
  tail call void @avio_write(ptr noundef %1, ptr noundef %13, i32 noundef %15) #8
  %indvars.iv.next = add nuw nsw i64 %indvars.iv, 1
  %16 = load i32, ptr %4, align 4, !tbaa !12
  %17 = zext i32 %16 to i64
  %18 = icmp samesign ult i64 %indvars.iv.next, %17
  br i1 %18, label %.lr.ph, label %._crit_edge, !llvm.loop !22
}